target datalayout = "e-m:e-p270:32:32-p271:32:32-p272:64:64-i64:64-i128:128-f80:128-n8:16:32:64-S128"
target triple = "x86_64-pc-linux-gnu"

%struct.b2Vec2 = type { float, float }
%struct.b2Transform = type { %struct.b2Vec2, %struct.b2Rot }
%struct.b2Rot = type { float, float }
%struct.b2Segment = type { %struct.b2Vec2, %struct.b2Vec2 }
%struct.b2ShapeProxy = type { [8 x %struct.b2Vec2], i32, float }
%struct.b2CastOutput = type { %struct.b2Vec2, %struct.b2Vec2, float, i32, i8 }
%struct.b2ShapeCastPairInput = type { %struct.b2ShapeProxy, %struct.b2ShapeProxy, %struct.b2Transform, %struct.b2Transform, %struct.b2Vec2, float }
%struct.b2ShapeCastInput = type { [8 x %struct.b2Vec2], i32, float, %struct.b2Vec2, float }

@b2Transform_identity = internal constant %struct.b2Transform { %struct.b2Vec2 zeroinitializer, %struct.b2Rot { float 1.000000e+00, float 0.000000e+00 } }, align 4

; Function Attrs: nounwind uwtable
define void @b2ShapeCastSegment(ptr dead_on_unwind noalias writable sret(%struct.b2CastOutput) align 4 %0, ptr noundef %1, ptr noundef %2) #3 {
  %4 = alloca ptr, align 8
  %5 = alloca ptr, align 8
  %6 = alloca %struct.b2ShapeCastPairInput, align 4
  %7 = alloca %struct.b2ShapeProxy, align 4
  %8 = alloca %struct.b2ShapeProxy, align 4
  store ptr %1, ptr %4, align 8, !tbaa !85
  store ptr %2, ptr %5, align 8, !tbaa !67
  call void @llvm.lifetime.start.p0(i64 188, ptr %6) #9
  %9 = getelementptr inbounds nuw %struct.b2ShapeCastPairInput, ptr %6, i32 0, i32 0
  call void @llvm.lifetime.start.p0(i64 72, ptr %7) #9
  %10 = load ptr, ptr %5, align 8, !tbaa !67
  %11 = getelementptr inbounds nuw %struct.b2Segment, ptr %10, i32 0, i32 0
  call void @b2MakeProxy(ptr dead_on_unwind writable sret(%struct.b2ShapeProxy) align 4 %7, ptr noundef %11, i32 noundef 2, float noundef 0.000000e+00)
  call void @llvm.memcpy.p0.p0.i64(ptr align 4 %9, ptr align 4 %7, i64 72, i1 false), !tbaa.struct !69
  call void @llvm.lifetime.end.p0(i64 72, ptr %7) #9
  %12 = getelementptr inbounds nuw %struct.b2ShapeCastPairInput, ptr %6, i32 0, i32 1
  call void @llvm.lifetime.start.p0(i64 72, ptr %8) #9
  %13 = load ptr, ptr %4, align 8, !tbaa !85
  %14 = getelementptr inbounds nuw %struct.b2ShapeCastInput, ptr %13, i32 0, i32 0
  %15 = getelementptr inbounds [8 x %struct.b2Vec2], ptr %14, i64 0, i64 0
  %16 = load ptr, ptr %4, align 8, !tbaa !85
  %17 = getelementptr inbounds nuw %struct.b2ShapeCastInput, ptr %16, i32 0, i32 1
  %18 = load i32, ptr %17, align 4, !tbaa !87
  %19 = load ptr, ptr %4, align 8, !tbaa !85
  %20 = getelementptr inbounds nuw %struct.b2ShapeCastInput, ptr %19, i32 0, i32 2
  %21 = load float, ptr %20, align 4, !tbaa !89
  call void @b2MakeProxy(ptr dead_on_unwind writable sret(%struct.b2ShapeProxy) align 4 %8, ptr noundef %15, i32 noundef %18, float noundef %21)
  call void @llvm.memcpy.p0.p0.i64(ptr align 4 %12, ptr align 4 %8, i64 72, i1 false), !tbaa.struct !69
  call void @llvm.lifetime.end.p0(i64 72, ptr %8) #9
  %22 = getelementptr inbounds nuw %struct.b2ShapeCastPairInput, ptr %6, i32 0, i32 2
  call void @llvm.memcpy.p0.p0.i64(ptr align 4 %22, ptr align 4 @b2Transform_identity, i64 16, i1 false), !tbaa.struct !70
  %23 = getelementptr inbounds nuw %struct.b2ShapeCastPairInput, ptr %6, i32 0, i32 3
  call void @llvm.memcpy.p0.p0.i64(ptr align 4 %23, ptr align 4 @b2Transform_identity, i64 16, i1 false), !tbaa.struct !70
  %24 = getelementptr inbounds nuw %struct.b2ShapeCastPairInput, ptr %6, i32 0, i32 4
  %25 = load ptr, ptr %4, align 8, !tbaa !85
  %26 = getelementptr inbounds nuw %struct.b2ShapeCastInput, ptr %25, i32 0, i32 3
  call void @llvm.memcpy.p0.p0.i64(ptr align 4 %24, ptr align 4 %26, i64 8, i1 false), !tbaa.struct !26
  %27 = load ptr, ptr %4, align 8, !tbaa !85
  %28 = getelementptr inbounds nuw %struct.b2ShapeCastInput, ptr %27, i32 0, i32 4
  %29 = load float, ptr %28, align 4, !tbaa !90
  %30 = getelementptr inbounds nuw %struct.b2ShapeCastPairInput, ptr %6, i32 0, i32 5
  store float %29, ptr %30, align 4, !tbaa !83
  call void @b2ShapeCast(ptr dead_on_unwind writable sret(%struct.b2CastOutput) align 4 %0, ptr noundef %6)
  call void @llvm.lifetime.end.p0(i64 188, ptr %6) #9
  ret void
}