; Function Attrs: nounwind uwtable
define void @b2ShapeCastSegment(ptr dead_on_unwind noalias writable sret(%struct.b2CastOutput) align 4 %0, ptr noundef %1, ptr noundef %2) local_unnamed_addr #14 {
  %4 = alloca %struct.b2ShapeCastPairInput, align 4
  %5 = alloca %struct.b2ShapeProxy, align 4
  call void @llvm.lifetime.start.p0(i64 188, ptr nonnull %4) #17
  call void @b2MakeProxy(ptr dead_on_unwind nonnull writable sret(%struct.b2ShapeProxy) align 4 %4, ptr noundef %2, i32 noundef 2, float noundef 0.000000e+00) #17
  %6 = getelementptr inbounds nuw i8, ptr %4, i64 72
  call void @llvm.lifetime.start.p0(i64 72, ptr nonnull %5) #17
  %7 = getelementptr inbounds nuw i8, ptr %1, i64 64
  %8 = load i32, ptr %7, align 4, !tbaa !78
  %9 = getelementptr inbounds nuw i8, ptr %1, i64 68
  %10 = load float, ptr %9, align 4, !tbaa !80
  call void @b2MakeProxy(ptr dead_on_unwind nonnull writable sret(%struct.b2ShapeProxy) align 4 %5, ptr noundef %1, i32 noundef %8, float noundef %10) #17
  call void @llvm.memcpy.p0.p0.i64(ptr noundef nonnull align 4 dereferenceable(72) %6, ptr noundef nonnull align 4 dereferenceable(72) %5, i64 72, i1 false), !tbaa.struct !54
  call void @llvm.lifetime.end.p0(i64 72, ptr nonnull %5) #17
  %11 = getelementptr inbounds nuw i8, ptr %4, i64 144
  call void @llvm.memcpy.p0.p0.i64(ptr noundef nonnull align 4 dereferenceable(16) %11, ptr noundef nonnull align 4 dereferenceable(16) @b2Transform_identity, i64 16, i1 false), !tbaa.struct !55
  %12 = getelementptr inbounds nuw i8, ptr %4, i64 160
  call void @llvm.memcpy.p0.p0.i64(ptr noundef nonnull align 4 dereferenceable(16) %12, ptr noundef nonnull align 4 dereferenceable(16) @b2Transform_identity, i64 16, i1 false), !tbaa.struct !55
  %13 = getelementptr inbounds nuw i8, ptr %4, i64 176
  %14 = getelementptr inbounds nuw i8, ptr %1, i64 72
  %15 = load i64, ptr %14, align 4
  store i64 %15, ptr %13, align 4
  %16 = getelementptr inbounds nuw i8, ptr %1, i64 80
  %17 = load float, ptr %16, align 4, !tbaa !81
  %18 = getelementptr inbounds nuw i8, ptr %4, i64 184
  store float %17, ptr %18, align 4, !tbaa !73
  call void @b2ShapeCast(ptr dead_on_unwind writable sret(%struct.b2CastOutput) align 4 %0, ptr noundef nonnull %4) #17
  call void @llvm.lifetime.end.p0(i64 188, ptr nonnull %4) #17
  ret void
}